target datalayout = "e-m:e-p270:32:32-p271:32:32-p272:64:64-i64:64-i128:128-f80:128-n8:16:32:64-S128"
target triple = "x86_64-pc-linux-gnu"

%struct.stbrp_node = type { i32, i32, ptr }

; Function Attrs: nounwind uwtable
define i32 @stbrp__skyline_find_min_y(ptr noundef %0, ptr noundef %1, i32 noundef %2, i32 noundef %3, ptr noundef %4) #0 {
  %6 = alloca ptr, align 8
  %7 = alloca ptr, align 8
  %8 = alloca i32, align 4
  %9 = alloca i32, align 4
  %10 = alloca ptr, align 8
  %11 = alloca ptr, align 8
  %12 = alloca i32, align 4
  %13 = alloca i32, align 4
  %14 = alloca i32, align 4
  %15 = alloca i32, align 4
  %16 = alloca i32, align 4
  store ptr %0, ptr %6, align 8, !tbaa !3
  store ptr %1, ptr %7, align 8, !tbaa !17
  store i32 %2, ptr %8, align 4, !tbaa !8
  store i32 %3, ptr %9, align 4, !tbaa !8
  store ptr %4, ptr %10, align 8, !tbaa !27
  call void @llvm.lifetime.start.p0(i64 8, ptr %11) #3
  %17 = load ptr, ptr %7, align 8, !tbaa !17
  store ptr %17, ptr %11, align 8, !tbaa !17
  call void @llvm.lifetime.start.p0(i64 4, ptr %12) #3
  %18 = load i32, ptr %8, align 4, !tbaa !8
  %19 = load i32, ptr %9, align 4, !tbaa !8
  %20 = add nsw i32 %18, %19
  store i32 %20, ptr %12, align 4, !tbaa !8
  call void @llvm.lifetime.start.p0(i64 4, ptr %13) #3
  call void @llvm.lifetime.start.p0(i64 4, ptr %14) #3
  call void @llvm.lifetime.start.p0(i64 4, ptr %15) #3
  store i32 0, ptr %13, align 4, !tbaa !8
  store i32 0, ptr %15, align 4, !tbaa !8
  store i32 0, ptr %14, align 4, !tbaa !8
  br label %21

21:                                               ; preds = %106, %5
  %22 = load ptr, ptr %11, align 8, !tbaa !17
  %23 = getelementptr inbounds nuw %struct.stbrp_node, ptr %22, i32 0, i32 0
  %24 = load i32, ptr %23, align 8, !tbaa !25
  %25 = load i32, ptr %12, align 4, !tbaa !8
  %26 = icmp slt i32 %24, %25
  br i1 %26, label %27, label %110

27:                                               ; preds = %21
  %28 = load ptr, ptr %11, align 8, !tbaa !17
  %29 = getelementptr inbounds nuw %struct.stbrp_node, ptr %28, i32 0, i32 1
  %30 = load i32, ptr %29, align 4, !tbaa !26
  %31 = load i32, ptr %13, align 4, !tbaa !8
  %32 = icmp sgt i32 %30, %31
  br i1 %32, label %33, label %74

33:                                               ; preds = %27
  %34 = load i32, ptr %14, align 4, !tbaa !8
  %35 = load ptr, ptr %11, align 8, !tbaa !17
  %36 = getelementptr inbounds nuw %struct.stbrp_node, ptr %35, i32 0, i32 1
  %37 = load i32, ptr %36, align 4, !tbaa !26
  %38 = load i32, ptr %13, align 4, !tbaa !8
  %39 = sub nsw i32 %37, %38
  %40 = mul nsw i32 %34, %39
  %41 = load i32, ptr %15, align 4, !tbaa !8
  %42 = add nsw i32 %41, %40
  store i32 %42, ptr %15, align 4, !tbaa !8
  %43 = load ptr, ptr %11, align 8, !tbaa !17
  %44 = getelementptr inbounds nuw %struct.stbrp_node, ptr %43, i32 0, i32 1
  %45 = load i32, ptr %44, align 4, !tbaa !26
  store i32 %45, ptr %13, align 4, !tbaa !8
  %46 = load ptr, ptr %11, align 8, !tbaa !17
  %47 = getelementptr inbounds nuw %struct.stbrp_node, ptr %46, i32 0, i32 0
  %48 = load i32, ptr %47, align 8, !tbaa !25
  %49 = load i32, ptr %8, align 4, !tbaa !8
  %50 = icmp slt i32 %48, %49
  br i1 %50, label %51, label %61

51:                                               ; preds = %33
  %52 = load ptr, ptr %11, align 8, !tbaa !17
  %53 = getelementptr inbounds nuw %struct.stbrp_node, ptr %52, i32 0, i32 2
  %54 = load ptr, ptr %53, align 8, !tbaa !18
  %55 = getelementptr inbounds nuw %struct.stbrp_node, ptr %54, i32 0, i32 0
  %56 = load i32, ptr %55, align 8, !tbaa !25
  %57 = load i32, ptr %8, align 4, !tbaa !8
  %58 = sub nsw i32 %56, %57
  %59 = load i32, ptr %14, align 4, !tbaa !8
  %60 = add nsw i32 %59, %58
  store i32 %60, ptr %14, align 4, !tbaa !8
  br label %73

61:                                               ; preds = %33
  %62 = load ptr, ptr %11, align 8, !tbaa !17
  %63 = getelementptr inbounds nuw %struct.stbrp_node, ptr %62, i32 0, i32 2
  %64 = load ptr, ptr %63, align 8, !tbaa !18
  %65 = getelementptr inbounds nuw %struct.stbrp_node, ptr %64, i32 0, i32 0
  %66 = load i32, ptr %65, align 8, !tbaa !25
  %67 = load ptr, ptr %11, align 8, !tbaa !17
  %68 = getelementptr inbounds nuw %struct.stbrp_node, ptr %67, i32 0, i32 0
  %69 = load i32, ptr %68, align 8, !tbaa !25
  %70 = sub nsw i32 %66, %69
  %71 = load i32, ptr %14, align 4, !tbaa !8
  %72 = add nsw i32 %71, %70
  store i32 %72, ptr %14, align 4, !tbaa !8
  br label %73

73:                                               ; preds = %61, %51
  br label %106

74:                                               ; preds = %27
  call void @llvm.lifetime.start.p0(i64 4, ptr %16) #3
  %75 = load ptr, ptr %11, align 8, !tbaa !17
  %76 = getelementptr inbounds nuw %struct.stbrp_node, ptr %75, i32 0, i32 2
  %77 = load ptr, ptr %76, align 8, !tbaa !18
  %78 = getelementptr inbounds nuw %struct.stbrp_node, ptr %77, i32 0, i32 0
  %79 = load i32, ptr %78, align 8, !tbaa !25
  %80 = load ptr, ptr %11, align 8, !tbaa !17
  %81 = getelementptr inbounds nuw %struct.stbrp_node, ptr %80, i32 0, i32 0
  %82 = load i32, ptr %81, align 8, !tbaa !25
  %83 = sub nsw i32 %79, %82
  store i32 %83, ptr %16, align 4, !tbaa !8
  %84 = load i32, ptr %16, align 4, !tbaa !8
  %85 = load i32, ptr %14, align 4, !tbaa !8
  %86 = add nsw i32 %84, %85
  %87 = load i32, ptr %9, align 4, !tbaa !8
  %88 = icmp sgt i32 %86, %87
  br i1 %88, label %89, label %93

89:                                               ; preds = %74
  %90 = load i32, ptr %9, align 4, !tbaa !8
  %91 = load i32, ptr %14, align 4, !tbaa !8
  %92 = sub nsw i32 %90, %91
  store i32 %92, ptr %16, align 4, !tbaa !8
  br label %93

93:                                               ; preds = %89, %74
  %94 = load i32, ptr %16, align 4, !tbaa !8
  %95 = load i32, ptr %13, align 4, !tbaa !8
  %96 = load ptr, ptr %11, align 8, !tbaa !17
  %97 = getelementptr inbounds nuw %struct.stbrp_node, ptr %96, i32 0, i32 1
  %98 = load i32, ptr %97, align 4, !tbaa !26
  %99 = sub nsw i32 %95, %98
  %100 = mul nsw i32 %94, %99
  %101 = load i32, ptr %15, align 4, !tbaa !8
  %102 = add nsw i32 %101, %100
  store i32 %102, ptr %15, align 4, !tbaa !8
  %103 = load i32, ptr %16, align 4, !tbaa !8
  %104 = load i32, ptr %14, align 4, !tbaa !8
  %105 = add nsw i32 %104, %103
  store i32 %105, ptr %14, align 4, !tbaa !8
  call void @llvm.lifetime.end.p0(i64 4, ptr %16) #3
  br label %106

106:                                              ; preds = %93, %73
  %107 = load ptr, ptr %11, align 8, !tbaa !17
  %108 = getelementptr inbounds nuw %struct.stbrp_node, ptr %107, i32 0, i32 2
  %109 = load ptr, ptr %108, align 8, !tbaa !18
  store ptr %109, ptr %11, align 8, !tbaa !17
  br label %21, !llvm.loop !29

110:                                              ; preds = %21
  %111 = load i32, ptr %15, align 4, !tbaa !8
  %112 = load ptr, ptr %10, align 8, !tbaa !27
  store i32 %111, ptr %112, align 4, !tbaa !8
  %113 = load i32, ptr %13, align 4, !tbaa !8
  call void @llvm.lifetime.end.p0(i64 4, ptr %15) #3
  call void @llvm.lifetime.end.p0(i64 4, ptr %14) #3
  call void @llvm.lifetime.end.p0(i64 4, ptr %13) #3
  call void @llvm.lifetime.end.p0(i64 4, ptr %12) #3
  call void @llvm.lifetime.end.p0(i64 8, ptr %11) #3
  ret i32 %113
}