; Function Attrs: nofree norecurse nosync nounwind memory(read, argmem: readwrite, inaccessiblemem: none) uwtable
define range(i32 0, -2147483648) i32 @stbrp__skyline_find_min_y(ptr noundef readnone captures(none) %0, ptr noundef readonly captures(none) %1, i32 noundef %2, i32 noundef %3, ptr noundef writeonly captures(none) %4) local_unnamed_addr #2 {
  %6 = add nsw i32 %3, %2
  %7 = load i32, ptr %1, align 8, !tbaa !21
  %8 = icmp slt i32 %7, %6
  br i1 %8, label %.lr.ph, label %._crit_edge

.lr.ph:                                           ; preds = %5, %34
  %9 = phi i32 [ %35, %34 ], [ %7, %5 ]
  %.03650 = phi i32 [ %.1, %34 ], [ 0, %5 ]
  %.03749 = phi i32 [ %.138, %34 ], [ 0, %5 ]
  %.03948 = phi i32 [ %.140, %34 ], [ 0, %5 ]
  %.04147 = phi ptr [ %36, %34 ], [ %1, %5 ]
  %10 = getelementptr inbounds nuw i8, ptr %.04147, i64 4
  %11 = load i32, ptr %10, align 4, !tbaa !22
  %12 = icmp sgt i32 %11, %.03948
  br i1 %12, label %13, label %24

13:                                               ; preds = %.lr.ph
  %14 = sub nsw i32 %11, %.03948
  %15 = mul nsw i32 %14, %.03749
  %16 = icmp slt i32 %9, %2
  %17 = getelementptr inbounds nuw i8, ptr %.04147, i64 8
  %18 = load ptr, ptr %17, align 8, !tbaa !14
  %19 = load i32, ptr %18, align 8, !tbaa !21
  br i1 %16, label %20, label %22

20:                                               ; preds = %13
  %21 = sub nsw i32 %19, %2
  br label %34

22:                                               ; preds = %13
  %23 = sub nsw i32 %19, %9
  br label %34

24:                                               ; preds = %.lr.ph
  %25 = getelementptr inbounds nuw i8, ptr %.04147, i64 8
  %26 = load ptr, ptr %25, align 8, !tbaa !14
  %27 = load i32, ptr %26, align 8, !tbaa !21
  %28 = sub nsw i32 %27, %9
  %29 = add nsw i32 %28, %.03749
  %30 = icmp sgt i32 %29, %3
  %31 = sub nsw i32 %3, %.03749
  %spec.select = select i1 %30, i32 %31, i32 %28
  %32 = sub nsw i32 %.03948, %11
  %33 = mul nsw i32 %spec.select, %32
  br label %34

34:                                               ; preds = %20, %22, %24
  %35 = phi i32 [ %19, %20 ], [ %19, %22 ], [ %27, %24 ]
  %36 = phi ptr [ %18, %20 ], [ %18, %22 ], [ %26, %24 ]
  %.140 = phi i32 [ %11, %20 ], [ %11, %22 ], [ %.03948, %24 ]
  %.pn = phi i32 [ %21, %20 ], [ %23, %22 ], [ %spec.select, %24 ]
  %.pn46 = phi i32 [ %15, %20 ], [ %15, %22 ], [ %33, %24 ]
  %.1 = add nsw i32 %.pn46, %.03650
  %.138 = add nsw i32 %.pn, %.03749
  %37 = icmp slt i32 %35, %6
  br i1 %37, label %.lr.ph, label %._crit_edge, !llvm.loop !23

._crit_edge:                                      ; preds = %34, %5
  %.039.lcssa = phi i32 [ 0, %5 ], [ %.140, %34 ]
  %.036.lcssa = phi i32 [ 0, %5 ], [ %.1, %34 ]
  store i32 %.036.lcssa, ptr %4, align 4, !tbaa !24
  ret i32 %.039.lcssa
}